target datalayout = "e-m:e-p270:32:32-p271:32:32-p272:64:64-i64:64-i128:128-f80:128-n8:16:32:64-S128"
target triple = "x86_64-pc-linux-gnu"

%struct.addrinfo = type { i32, i32, i32, i32, i32, ptr, ptr, ptr }
%struct.sockaddr_un = type { i16, [108 x i8] }

; Function Attrs: nounwind uwtable
define internal i32 @getaddrinfo_unix(ptr noundef %0, ptr noundef %1, ptr noundef %2) #0 {
  %4 = alloca i32, align 4
  %5 = alloca ptr, align 8
  %6 = alloca ptr, align 8
  %7 = alloca ptr, align 8
  %8 = alloca %struct.addrinfo, align 8
  %9 = alloca ptr, align 8
  %10 = alloca ptr, align 8
  %11 = alloca i32, align 4
  store ptr %0, ptr %5, align 8
  store ptr %1, ptr %6, align 8
  store ptr %2, ptr %7, align 8
  call void @llvm.lifetime.start.p0(i64 48, ptr %8) #8
  call void @llvm.memset.p0.i64(ptr align 8 %8, i8 0, i64 48, i1 false)
  call void @llvm.lifetime.start.p0(i64 8, ptr %9) #8
  call void @llvm.lifetime.start.p0(i64 8, ptr %10) #8
  %12 = load ptr, ptr %7, align 8
  store ptr null, ptr %12, align 8
  %13 = load ptr, ptr %5, align 8
  %14 = call i64 @strlen(ptr noundef %13) #9
  %15 = icmp uge i64 %14, 108
  br i1 %15, label %16, label %17

16:                                               ; preds = %3
  store i32 -4, ptr %4, align 4
  store i32 1, ptr %11, align 4
  br label %92

17:                                               ; preds = %3
  %18 = load ptr, ptr %6, align 8
  %19 = icmp eq ptr %18, null
  br i1 %19, label %20, label %23

20:                                               ; preds = %17
  %21 = getelementptr inbounds nuw %struct.addrinfo, ptr %8, i32 0, i32 1
  store i32 1, ptr %21, align 4
  %22 = getelementptr inbounds nuw %struct.addrinfo, ptr %8, i32 0, i32 2
  store i32 1, ptr %22, align 8
  br label %25

23:                                               ; preds = %17
  %24 = load ptr, ptr %6, align 8
  call void @llvm.memcpy.p0.p0.i64(ptr align 8 %8, ptr align 8 %24, i64 48, i1 false)
  br label %25

25:                                               ; preds = %23, %20
  %26 = getelementptr inbounds nuw %struct.addrinfo, ptr %8, i32 0, i32 2
  %27 = load i32, ptr %26, align 8
  %28 = icmp eq i32 %27, 0
  br i1 %28, label %29, label %31

29:                                               ; preds = %25
  %30 = getelementptr inbounds nuw %struct.addrinfo, ptr %8, i32 0, i32 2
  store i32 1, ptr %30, align 8
  br label %31

31:                                               ; preds = %29, %25
  %32 = getelementptr inbounds nuw %struct.addrinfo, ptr %8, i32 0, i32 1
  %33 = load i32, ptr %32, align 4
  %34 = icmp ne i32 %33, 1
  br i1 %34, label %35, label %36

35:                                               ; preds = %31
  store i32 -4, ptr %4, align 4
  store i32 1, ptr %11, align 4
  br label %92

36:                                               ; preds = %31
  %37 = call noalias ptr @calloc(i64 noundef 1, i64 noundef 48) #10
  store ptr %37, ptr %9, align 8
  %38 = load ptr, ptr %9, align 8
  %39 = icmp eq ptr %38, null
  br i1 %39, label %40, label %41

40:                                               ; preds = %36
  store i32 -10, ptr %4, align 4
  store i32 1, ptr %11, align 4
  br label %92

41:                                               ; preds = %36
  %42 = call noalias ptr @calloc(i64 noundef 1, i64 noundef 110) #10
  store ptr %42, ptr %10, align 8
  %43 = load ptr, ptr %10, align 8
  %44 = icmp eq ptr %43, null
  br i1 %44, label %45, label %47

45:                                               ; preds = %41
  %46 = load ptr, ptr %9, align 8
  call void @free(ptr noundef %46) #8
  store i32 -10, ptr %4, align 4
  store i32 1, ptr %11, align 4
  br label %92

47:                                               ; preds = %41
  %48 = load ptr, ptr %9, align 8
  %49 = getelementptr inbounds nuw %struct.addrinfo, ptr %48, i32 0, i32 1
  store i32 1, ptr %49, align 4
  %50 = getelementptr inbounds nuw %struct.addrinfo, ptr %8, i32 0, i32 2
  %51 = load i32, ptr %50, align 8
  %52 = load ptr, ptr %9, align 8
  %53 = getelementptr inbounds nuw %struct.addrinfo, ptr %52, i32 0, i32 2
  store i32 %51, ptr %53, align 8
  %54 = getelementptr inbounds nuw %struct.addrinfo, ptr %8, i32 0, i32 3
  %55 = load i32, ptr %54, align 4
  %56 = load ptr, ptr %9, align 8
  %57 = getelementptr inbounds nuw %struct.addrinfo, ptr %56, i32 0, i32 3
  store i32 %55, ptr %57, align 4
  %58 = load ptr, ptr %9, align 8
  %59 = getelementptr inbounds nuw %struct.addrinfo, ptr %58, i32 0, i32 7
  store ptr null, ptr %59, align 8
  %60 = load ptr, ptr %9, align 8
  %61 = getelementptr inbounds nuw %struct.addrinfo, ptr %60, i32 0, i32 6
  store ptr null, ptr %61, align 8
  %62 = load ptr, ptr %9, align 8
  %63 = load ptr, ptr %7, align 8
  store ptr %62, ptr %63, align 8
  %64 = load ptr, ptr %10, align 8
  %65 = getelementptr inbounds nuw %struct.sockaddr_un, ptr %64, i32 0, i32 0
  store i16 1, ptr %65, align 2
  %66 = load ptr, ptr %10, align 8
  %67 = load ptr, ptr %9, align 8
  %68 = getelementptr inbounds nuw %struct.addrinfo, ptr %67, i32 0, i32 5
  store ptr %66, ptr %68, align 8
  %69 = load ptr, ptr %9, align 8
  %70 = getelementptr inbounds nuw %struct.addrinfo, ptr %69, i32 0, i32 4
  store i32 110, ptr %70, align 8
  %71 = load ptr, ptr %10, align 8
  %72 = getelementptr inbounds nuw %struct.sockaddr_un, ptr %71, i32 0, i32 1
  %73 = getelementptr inbounds [108 x i8], ptr %72, i64 0, i64 0
  %74 = load ptr, ptr %5, align 8
  %75 = call ptr @strcpy(ptr noundef %73, ptr noundef %74) #8
  %76 = load ptr, ptr %5, align 8
  %77 = getelementptr inbounds i8, ptr %76, i64 0
  %78 = load i8, ptr %77, align 1
  %79 = sext i8 %78 to i32
  %80 = icmp eq i32 %79, 64
  br i1 %80, label %81, label %91

81:                                               ; preds = %47
  %82 = load ptr, ptr %10, align 8
  %83 = getelementptr inbounds nuw %struct.sockaddr_un, ptr %82, i32 0, i32 1
  %84 = getelementptr inbounds [108 x i8], ptr %83, i64 0, i64 0
  store i8 0, ptr %84, align 2
  %85 = load ptr, ptr %5, align 8
  %86 = call i64 @strlen(ptr noundef %85) #9
  %87 = add i64 2, %86
  %88 = trunc i64 %87 to i32
  %89 = load ptr, ptr %9, align 8
  %90 = getelementptr inbounds nuw %struct.addrinfo, ptr %89, i32 0, i32 4
  store i32 %88, ptr %90, align 8
  br label %91

91:                                               ; preds = %81, %47
  store i32 0, ptr %4, align 4
  store i32 1, ptr %11, align 4
  br label %92

92:                                               ; preds = %91, %45, %40, %35, %16
  call void @llvm.lifetime.end.p0(i64 8, ptr %10) #8
  call void @llvm.lifetime.end.p0(i64 8, ptr %9) #8
  call void @llvm.lifetime.end.p0(i64 48, ptr %8) #8
  %93 = load i32, ptr %4, align 4
  ret i32 %93
}

; Function Attrs: nounwind uwtable
define dso_local i32 @pg_getaddrinfo_all(ptr noundef %0, ptr noundef %1, ptr noundef %2, ptr noundef %3) #0 {
  %5 = alloca i32, align 4
  %6 = alloca ptr, align 8
  %7 = alloca ptr, align 8
  %8 = alloca ptr, align 8
  %9 = alloca ptr, align 8
  %10 = alloca i32, align 4
  %11 = alloca i32, align 4
  store ptr %0, ptr %6, align 8
  store ptr %1, ptr %7, align 8
  store ptr %2, ptr %8, align 8
  store ptr %3, ptr %9, align 8
  call void @llvm.lifetime.start.p0(i64 4, ptr %10) #8
  %12 = load ptr, ptr %9, align 8
  store ptr null, ptr %12, align 8
  %13 = load ptr, ptr %8, align 8
  %14 = getelementptr inbounds nuw %struct.addrinfo, ptr %13, i32 0, i32 1
  %15 = load i32, ptr %14, align 4
  %16 = icmp eq i32 %15, 1
  br i1 %16, label %17, label %22

17:                                               ; preds = %4
  %18 = load ptr, ptr %7, align 8
  %19 = load ptr, ptr %8, align 8
  %20 = load ptr, ptr %9, align 8
  %21 = call i32 @getaddrinfo_unix(ptr noundef %18, ptr noundef %19, ptr noundef %20)
  store i32 %21, ptr %5, align 4
  store i32 1, ptr %11, align 4
  br label %41

22:                                               ; preds = %4
  %23 = load ptr, ptr %6, align 8
  %24 = icmp ne ptr %23, null
  br i1 %24, label %25, label %31

25:                                               ; preds = %22
  %26 = load ptr, ptr %6, align 8
  %27 = getelementptr inbounds i8, ptr %26, i64 0
  %28 = load i8, ptr %27, align 1
  %29 = sext i8 %28 to i32
  %30 = icmp eq i32 %29, 0
  br i1 %30, label %31, label %32

31:                                               ; preds = %25, %22
  br label %34

32:                                               ; preds = %25
  %33 = load ptr, ptr %6, align 8
  br label %34

34:                                               ; preds = %32, %31
  %35 = phi ptr [ null, %31 ], [ %33, %32 ]
  %36 = load ptr, ptr %7, align 8
  %37 = load ptr, ptr %8, align 8
  %38 = load ptr, ptr %9, align 8
  %39 = call i32 @getaddrinfo(ptr noundef %35, ptr noundef %36, ptr noundef %37, ptr noundef %38)
  store i32 %39, ptr %10, align 4
  %40 = load i32, ptr %10, align 4
  store i32 %40, ptr %5, align 4
  store i32 1, ptr %11, align 4
  br label %41

41:                                               ; preds = %34, %17
  call void @llvm.lifetime.end.p0(i64 4, ptr %10) #8
  %42 = load i32, ptr %5, align 4
  ret i32 %42
}