; Function Attrs: nounwind uwtable
define dso_local i32 @pg_getaddrinfo_all(ptr noundef %0, ptr noundef %1, ptr noundef %2, ptr noundef initializes((0, 8)) %3) local_unnamed_addr #0 {
  store ptr null, ptr %3, align 8
  %5 = getelementptr inbounds nuw i8, ptr %2, i64 4
  %6 = load i32, ptr %5, align 4
  %7 = icmp eq i32 %6, 1
  br i1 %7, label %8, label %33

8:                                                ; preds = %4
  %9 = tail call i64 @strlen(ptr noundef nonnull readonly dereferenceable(1) %1) #9
  %10 = icmp ugt i64 %9, 107
  br i1 %10, label %getaddrinfo_unix.exit, label %11

11:                                               ; preds = %8
  %.sroa.4.0.copyload.i = load i32, ptr %5, align 4
  %.sroa.6.0..sroa_idx.i = getelementptr inbounds nuw i8, ptr %2, i64 8
  %.sroa.6.0.copyload.i = load i32, ptr %.sroa.6.0..sroa_idx.i, align 8
  %.sroa.6.0.copyload.fr.i = freeze i32 %.sroa.6.0.copyload.i
  %.sroa.10.0..sroa_idx.i = getelementptr inbounds nuw i8, ptr %2, i64 12
  %.sroa.10.0.copyload.i = load i32, ptr %.sroa.10.0..sroa_idx.i, align 4
  %12 = icmp eq i32 %.sroa.4.0.copyload.i, 1
  %..sroa.6.0.copyload.i = tail call i32 @llvm.umax.i32(i32 %.sroa.6.0.copyload.fr.i, i32 1)
  br i1 %12, label %.thread35.i, label %getaddrinfo_unix.exit

.thread35.i:                                      ; preds = %11
  %13 = tail call noalias dereferenceable_or_null(48) ptr @calloc(i64 noundef 1, i64 noundef 48) #10
  %14 = icmp eq ptr %13, null
  br i1 %14, label %getaddrinfo_unix.exit, label %15

15:                                               ; preds = %.thread35.i
  %16 = tail call noalias dereferenceable_or_null(110) ptr @calloc(i64 noundef 1, i64 noundef 110) #10
  %17 = icmp eq ptr %16, null
  br i1 %17, label %18, label %19

18:                                               ; preds = %15
  tail call void @free(ptr noundef nonnull %13) #11
  br label %getaddrinfo_unix.exit

19:                                               ; preds = %15
  %20 = getelementptr inbounds nuw i8, ptr %13, i64 4
  store i32 1, ptr %20, align 4
  %21 = getelementptr inbounds nuw i8, ptr %13, i64 8
  store i32 %..sroa.6.0.copyload.i, ptr %21, align 8
  %22 = getelementptr inbounds nuw i8, ptr %13, i64 12
  store i32 %.sroa.10.0.copyload.i, ptr %22, align 4
  store ptr %13, ptr %3, align 8
  store i16 1, ptr %16, align 2
  %23 = getelementptr inbounds nuw i8, ptr %13, i64 24
  store ptr %16, ptr %23, align 8
  %24 = getelementptr inbounds nuw i8, ptr %13, i64 16
  store i32 110, ptr %24, align 8
  %25 = getelementptr inbounds nuw i8, ptr %16, i64 2
  %26 = tail call ptr @strcpy(ptr noundef nonnull dereferenceable(1) %25, ptr noundef nonnull readonly dereferenceable(1) %1) #11
  %27 = load i8, ptr %1, align 1
  %28 = icmp eq i8 %27, 64
  br i1 %28, label %29, label %getaddrinfo_unix.exit

29:                                               ; preds = %19
  store i8 0, ptr %25, align 2
  %30 = tail call i64 @strlen(ptr noundef nonnull readonly dereferenceable(1) %1) #9
  %31 = trunc i64 %30 to i32
  %32 = add i32 %31, 2
  store i32 %32, ptr %24, align 8
  br label %getaddrinfo_unix.exit

33:                                               ; preds = %4
  %.not = icmp eq ptr %0, null
  br i1 %.not, label %37, label %34

34:                                               ; preds = %33
  %35 = load i8, ptr %0, align 1
  %36 = icmp eq i8 %35, 0
  %spec.select = select i1 %36, ptr null, ptr %0
  br label %37

37:                                               ; preds = %34, %33
  %38 = phi ptr [ null, %33 ], [ %spec.select, %34 ]
  %39 = tail call i32 @getaddrinfo(ptr noundef %38, ptr noundef %1, ptr noundef nonnull %2, ptr noundef nonnull %3) #11
  br label %getaddrinfo_unix.exit

getaddrinfo_unix.exit:                            ; preds = %29, %19, %18, %.thread35.i, %11, %8, %37
  %.0 = phi i32 [ %39, %37 ], [ -10, %18 ], [ -4, %8 ], [ -10, %.thread35.i ], [ 0, %29 ], [ 0, %19 ], [ -4, %11 ]
  ret i32 %.0
}